Certificate:
    Data:
        Version: 1 (0x0)
        Serial Number: 4096 (0x1000)
    Signature Algorithm: sha256WithRSAEncryption
        Issuer: CN=TestCA
        Validity
            Not Before: Jan  1 00:00:00 2030 GMT
            Not After : Jan  1 00:00:00 2040 GMT
        Subject: CN=localhost
        Subject Public Key Info:
            Public Key Algorithm: rsaEncryption
                RSA Public-Key: (2048 bit)
                Modulus:
                    00:cd:e0:f9:0d:e6:f1:1b:20:3b:f8:63:f6:e2:db:
                    48:07:64:5c:ee:3f:2a:65:de:1d:5c:f1:80:b7:95:
                    24:2d:e3:66:b3:79:da:d0:60:f5:bf:bb:c4:a8:41:
                    d2:5e:bd:36:10:eb:9f:32:96:e7:d0:db:0d:f8:09:
                    a1:39:68:85:45:f9:43:b4:83:2b:dd:0b:36:f2:e4:
                    13:d4:58:12:b9:94:a4:c5:8c:8c:fa:03:4a:3f:51:
                    fe:89:bd:13:bf:7c:98:6a:c7:77:61:7a:93:28:24:
                    d9:fb:54:d2:70:3e:3a:95:b4:2e:8b:ff:34:24:8b:
                    59:57:d4:b4:9e:92:e8:89:17:f3:9a:35:0c:0e:ac:
                    96:4c:59:4e:8a:59:78:fa:d0:2e:58:75:64:af:b2:
                    bd:b8:89:07:54:cb:d1:1e:35:24:d1:d4:89:ec:54:
                    32:28:f5:2f:88:aa:51:8b:c0:2c:dd:5a:8d:e6:90:
                    bd:7e:80:f8:f0:0a:50:27:09:87:b1:e0:fc:55:ab:
                    e1:67:9b:ad:75:2d:9d:b7:c9:2f:04:0a:83:64:79:
                    1f:23:bf:75:bd:85:82:92:00:ad:ca:58:a1:78:24:
                    c7:60:09:7f:eb:6b:9e:99:7b:c1:a0:32:3f:bc:23:
                    09:fb:54:38:27:a2:0a:9d:61:9d:66:a4:11:d7:e3:
                    09:1f
                Exponent: 65537 (0x10001)
    Signature Algorithm: sha256WithRSAEncryption
         7a:27:40:24:82:c0:55:65:ce:bc:52:db:25:b8:ab:99:89:40:
         85:f4:af:ac:0c:50:db:32:ea:54:05:15:57:ee:40:f5:8e:94:
         db:50:bc:87:3f:de:52:2f:dd:8e:a6:1c:5f:44:68:26:f0:1d:
         c1:3d:1e:fa:98:65:25:93:77:25:ce:20:f7:1d:f3:2b:1e:fa:
         0f:0e:d4:49:cd:ee:30:41:8d:f7:47:34:0d:34:2d:55:45:91:
         dc:5d:13:a3:0d:09:1a:60:e0:00:9f:c1:23:ba:c6:56:4c:fa:
         2e:e3:c4:c9:6d:9d:4c:a6:7a:89:d7:88:8a:2c:aa:d1:b3:5b:
         9b:9e:70:df:60:2e:6a:96:a9:24:5a:9d:af:d8:7f:09:3f:ef:
         eb:e0:8d:94:23:a2:98:35:47:23:4f:11:d5:8c:4f:93:9c:cd:
         f0:2d:8b:34:8b:0e:ad:db:93:49:b6:a5:e5:a6:30:a8:c4:2e:
         6c:aa:4a:37:01:e1:96:d5:d2:fb:b2:cc:bc:eb:6f:2c:ec:47:
         61:7f:bf:c2:fc:c2:63:a0:8e:39:f9:88:66:a8:28:55:b4:79:
         4e:5f:6e:e4:9c:da:7d:d2:32:49:e6:82:7b:86:b1:96:4b:b9:
         c7:40:c9:fd:89:56:a0:b4:8d:b4:7f:80:b3:93:95:6f:57:eb:
         4c:5e:c9:63
-----BEGIN CERTIFICATE-----
MIICmjCCAYICAhAAMA0GCSqGSIb3DQEBCwUAMBExDzANBgNVBAMMBlRlc3RDQTAe
Fw0zMDAxMDEwMDAwMDBaFw00MDAxMDEwMDAwMDBaMBQxEjAQBgNVBAMMCWxvY2Fs
aG9zdDCCASIwDQYJKoZIhvcNAQEBBQADggEPADCCAQoCggEBAM3g+Q3m8RsgO/hj
9uLbSAdkXO4/KmXeHVzxgLeVJC3jZrN52tBg9b+7xKhB0l69NhDrnzKW59DbDfgJ
oTlohUX5Q7SDK90LNvLkE9RYErmUpMWMjPoDSj9R/om9E798mGrHd2F6kygk2ftU
0nA+OpW0Lov/NCSLWVfUtJ6S6IkX85o1DA6slkxZTopZePrQLlh1ZK+yvbiJB1TL
0R41JNHUiexUMij1L4iqUYvALN1ajeaQvX6A+PAKUCcJh7Hg/FWr4WebrXUtnbfJ
LwQKg2R5HyO/db2FgpIArcpYoXgkx2AJf+trnpl7waAyP7wjCftUOCeiCp1hnWak
EdfjCR8CAwEAATANBgkqhkiG9w0BAQsFAAOCAQEAeidAJILAVWXOvFLbJbirmYlA
hfSvrAxQ2zLqVAUVV+5A9Y6U21C8hz/eUi/djqYcX0RoJvAdwT0e+phlJZN3Jc4g
9x3zKx76Dw7USc3uMEGN90c0DTQtVUWR3F0Tow0JGmDgAJ/BI7rGVkz6LuPEyW2d
TKZ6ideIiiyq0bNbm55w32AuapapJFqdr9h/CT/v6+CNlCOimDVHI08R1YxPk5zN
8C2LNIsOrduTSbal5aYwqMQubKpKNwHhltXS+7LMvOtvLOxHYX+/wvzCY6COOfmI
ZqgoVbR5Tl9u5JzafdIySeaCe4axlku5x0DJ/YlWoLSNtH+As5OVb1frTF7JYw==
-----END CERTIFICATE-----
